target datalayout = "e-m:e-p270:32:32-p271:32:32-p272:64:64-i64:64-i128:128-f80:128-n8:16:32:64-S128"
target triple = "x86_64-pc-linux-gnu"

%struct.slurm_opt_t = type { ptr, ptr, ptr, ptr, ptr, ptr, ptr, ptr, i32, ptr, ptr, ptr, ptr, i32, i32, ptr, i32, i8, i8, i32, i8, i32, i32, ptr, i8, i32, i32, i64, i32, i32, i32, i32, i32, i32, ptr, i32, ptr, i8, i32, i32, ptr, i32, i32, i32, ptr, ptr, i32, i32, ptr, ptr, ptr, i32, i16, i16, i16, i8, i8, ptr, i8, i16, ptr, ptr, i32, i32, i32, ptr, ptr, ptr, ptr, ptr, ptr, i32, i64, i64, i64, i16, i64, ptr, ptr, ptr, ptr, ptr, ptr, ptr, i8, ptr, ptr, ptr, ptr, i8, i64, ptr, i16, ptr, i32, i32, ptr, ptr, i32, i32, i32, ptr, i32, i32, i32, i32, i32, ptr, i64, i32, i16, i32, ptr, ptr, ptr, ptr, ptr, i16, ptr, ptr, i16, i8, ptr, ptr, ptr, ptr }
%struct.srun_opt_t = type { i16, ptr, ptr, ptr, i8, ptr, i16, i8, ptr, i32, i8, i8, i8, ptr, i8, i8, i8, i32, i32, i32, i8, i32, i32, i32, ptr, i8, i32, i8, i8, ptr, ptr, i32, i8, i8, ptr, ptr, ptr, i8, i32, i8, i32, ptr, ptr, i8, i8, i16, i8, i8 }
%struct.stat = type { i64, i64, i64, i32, i32, i32, i32, i64, i64, i64, i64, %struct.timespec, %struct.timespec, %struct.timespec, [3 x i64] }
%struct.timespec = type { i64, i64 }

@error_exit = external global i32, align 4
@.str.4 = private unnamed_addr constant [9 x i8] c"launch.c\00", align 1
@.str.5 = private unnamed_addr constant [33 x i8] c"configuration file not specified\00", align 1
@.str.28 = private unnamed_addr constant [41 x i8] c"Could not open multi_prog config file %s\00", align 1
@.str.29 = private unnamed_addr constant [41 x i8] c"Could not stat multi_prog config file %s\00", align 1
@.str.30 = private unnamed_addr constant [39 x i8] c"Multi_prog config file %s is too large\00", align 1
@__func__._load_multi = private unnamed_addr constant [12 x i8] c"_load_multi\00", align 1
@.str.31 = private unnamed_addr constant [40 x i8] c"Error reading multi_prog config file %s\00", align 1

; Function Attrs: nounwind uwtable
define internal void @_load_multi(ptr noundef %0, ptr noundef %1) #0 {
  %3 = alloca ptr, align 8
  %4 = alloca ptr, align 8
  %5 = alloca i32, align 4
  %6 = alloca i32, align 4
  %7 = alloca i32, align 4
  %8 = alloca %struct.stat, align 8
  %9 = alloca ptr, align 8
  store ptr %0, ptr %3, align 8
  store ptr %1, ptr %4, align 8
  call void @llvm.lifetime.start.p0(i64 4, ptr %5) #10
  call void @llvm.lifetime.start.p0(i64 4, ptr %6) #10
  store i32 0, ptr %6, align 4
  call void @llvm.lifetime.start.p0(i64 4, ptr %7) #10
  call void @llvm.lifetime.start.p0(i64 144, ptr %8) #10
  call void @llvm.lifetime.start.p0(i64 8, ptr %9) #10
  %10 = load ptr, ptr %4, align 8
  %11 = getelementptr inbounds ptr, ptr %10, i64 0
  %12 = load ptr, ptr %11, align 8
  %13 = call i32 (ptr, i32, ...) @open(ptr noundef %12, i32 noundef 0)
  store i32 %13, ptr %5, align 4
  %14 = icmp eq i32 %13, -1
  br i1 %14, label %15, label %21

15:                                               ; preds = %2
  %16 = load ptr, ptr %4, align 8
  %17 = getelementptr inbounds ptr, ptr %16, i64 0
  %18 = load ptr, ptr %17, align 8
  %19 = call i32 (ptr, ...) @error(ptr noundef @.str.28, ptr noundef %18)
  %20 = load i32, ptr @error_exit, align 4
  call void @exit(i32 noundef %20) #11
  unreachable

21:                                               ; preds = %2
  %22 = load i32, ptr %5, align 4
  %23 = call i32 @fstat(i32 noundef %22, ptr noundef %8) #10
  %24 = icmp eq i32 %23, -1
  br i1 %24, label %25, label %31

25:                                               ; preds = %21
  %26 = load ptr, ptr %4, align 8
  %27 = getelementptr inbounds ptr, ptr %26, i64 0
  %28 = load ptr, ptr %27, align 8
  %29 = call i32 (ptr, ...) @error(ptr noundef @.str.29, ptr noundef %28)
  %30 = load i32, ptr @error_exit, align 4
  call void @exit(i32 noundef %30) #11
  unreachable

31:                                               ; preds = %21
  %32 = getelementptr inbounds nuw %struct.stat, ptr %8, i32 0, i32 8
  %33 = load i64, ptr %32, align 8
  %34 = icmp sgt i64 %33, 60000
  br i1 %34, label %35, label %41

35:                                               ; preds = %31
  %36 = load ptr, ptr %4, align 8
  %37 = getelementptr inbounds ptr, ptr %36, i64 0
  %38 = load ptr, ptr %37, align 8
  %39 = call i32 (ptr, ...) @error(ptr noundef @.str.30, ptr noundef %38)
  %40 = load i32, ptr @error_exit, align 4
  call void @exit(i32 noundef %40) #11
  unreachable

41:                                               ; preds = %31
  %42 = getelementptr inbounds nuw %struct.stat, ptr %8, i32 0, i32 8
  %43 = load i64, ptr %42, align 8
  %44 = add nsw i64 %43, 1
  %45 = call ptr @slurm_xcalloc(i64 noundef 1, i64 noundef %44, i1 noundef zeroext true, i1 noundef zeroext false, ptr noundef @.str.4, i32 noundef 519, ptr noundef @__func__._load_multi)
  store ptr %45, ptr %9, align 8
  br label %46

46:                                               ; preds = %73, %41
  %47 = load i32, ptr %5, align 4
  %48 = load ptr, ptr %9, align 8
  %49 = load i32, ptr %6, align 4
  %50 = sext i32 %49 to i64
  %51 = getelementptr inbounds i8, ptr %48, i64 %50
  %52 = getelementptr inbounds nuw %struct.stat, ptr %8, i32 0, i32 8
  %53 = load i64, ptr %52, align 8
  %54 = load i32, ptr %6, align 4
  %55 = sext i32 %54 to i64
  %56 = sub nsw i64 %53, %55
  %57 = call i64 @read(i32 noundef %47, ptr noundef %51, i64 noundef %56)
  %58 = trunc i64 %57 to i32
  store i32 %58, ptr %7, align 4
  %59 = icmp ne i32 %58, 0
  br i1 %59, label %60, label %74

60:                                               ; preds = %46
  %61 = load i32, ptr %7, align 4
  %62 = icmp slt i32 %61, 0
  br i1 %62, label %63, label %69

63:                                               ; preds = %60
  %64 = load ptr, ptr %4, align 8
  %65 = getelementptr inbounds ptr, ptr %64, i64 0
  %66 = load ptr, ptr %65, align 8
  %67 = call i32 (ptr, ...) @error(ptr noundef @.str.31, ptr noundef %66)
  %68 = load i32, ptr @error_exit, align 4
  call void @exit(i32 noundef %68) #11
  unreachable

69:                                               ; preds = %60
  %70 = load i32, ptr %7, align 4
  %71 = load i32, ptr %6, align 4
  %72 = add nsw i32 %71, %70
  store i32 %72, ptr %6, align 4
  br label %73

73:                                               ; preds = %69
  br label %46, !llvm.loop !10

74:                                               ; preds = %46
  %75 = load i32, ptr %5, align 4
  %76 = call i32 @close(i32 noundef %75)
  %77 = load ptr, ptr %3, align 8
  %78 = load i32, ptr %77, align 4
  %79 = add nsw i32 %78, 1
  store i32 %79, ptr %7, align 4
  br label %80

80:                                               ; preds = %94, %74
  %81 = load i32, ptr %7, align 4
  %82 = icmp sgt i32 %81, 1
  br i1 %82, label %83, label %97

83:                                               ; preds = %80
  %84 = load ptr, ptr %4, align 8
  %85 = load i32, ptr %7, align 4
  %86 = sub nsw i32 %85, 1
  %87 = sext i32 %86 to i64
  %88 = getelementptr inbounds ptr, ptr %84, i64 %87
  %89 = load ptr, ptr %88, align 8
  %90 = load ptr, ptr %4, align 8
  %91 = load i32, ptr %7, align 4
  %92 = sext i32 %91 to i64
  %93 = getelementptr inbounds ptr, ptr %90, i64 %92
  store ptr %89, ptr %93, align 8
  br label %94

94:                                               ; preds = %83
  %95 = load i32, ptr %7, align 4
  %96 = add nsw i32 %95, -1
  store i32 %96, ptr %7, align 4
  br label %80, !llvm.loop !13

97:                                               ; preds = %80
  %98 = load ptr, ptr %9, align 8
  %99 = load ptr, ptr %4, align 8
  %100 = getelementptr inbounds ptr, ptr %99, i64 1
  store ptr %98, ptr %100, align 8
  %101 = load ptr, ptr %3, align 8
  %102 = load i32, ptr %101, align 4
  %103 = add nsw i32 %102, 1
  store i32 %103, ptr %101, align 4
  call void @llvm.lifetime.end.p0(i64 8, ptr %9) #10
  call void @llvm.lifetime.end.p0(i64 144, ptr %8) #10
  call void @llvm.lifetime.end.p0(i64 4, ptr %7) #10
  call void @llvm.lifetime.end.p0(i64 4, ptr %6) #10
  call void @llvm.lifetime.end.p0(i64 4, ptr %5) #10
  ret void
}

; Function Attrs: nounwind uwtable
define dso_local i32 @launch_g_handle_multi_prog_verify(i32 noundef %0, ptr noundef %1) #0 {
  %3 = alloca i32, align 4
  %4 = alloca i32, align 4
  %5 = alloca ptr, align 8
  %6 = alloca ptr, align 8
  %7 = alloca i32, align 4
  store i32 %0, ptr %4, align 4
  store ptr %1, ptr %5, align 8
  call void @llvm.lifetime.start.p0(i64 8, ptr %6) #10
  %8 = load ptr, ptr %5, align 8
  %9 = getelementptr inbounds nuw %struct.slurm_opt_t, ptr %8, i32 0, i32 3
  %10 = load ptr, ptr %9, align 8
  store ptr %10, ptr %6, align 8
  %11 = load ptr, ptr %6, align 8
  %12 = getelementptr inbounds nuw %struct.srun_opt_t, ptr %11, i32 0, i32 25
  %13 = load i8, ptr %12, align 8, !range !8, !noundef !9
  %14 = trunc i8 %13 to i1
  br i1 %14, label %15, label %42

15:                                               ; preds = %2
  %16 = load ptr, ptr %5, align 8
  %17 = getelementptr inbounds nuw %struct.slurm_opt_t, ptr %16, i32 0, i32 8
  %18 = load i32, ptr %17, align 8
  %19 = icmp slt i32 %18, 1
  br i1 %19, label %20, label %23

20:                                               ; preds = %15
  %21 = call i32 (ptr, ...) @error(ptr noundef @.str.5)
  %22 = load i32, ptr @error_exit, align 4
  call void @exit(i32 noundef %22) #11
  unreachable

23:                                               ; preds = %15
  %24 = load ptr, ptr %5, align 8
  %25 = getelementptr inbounds nuw %struct.slurm_opt_t, ptr %24, i32 0, i32 8
  %26 = load ptr, ptr %5, align 8
  %27 = getelementptr inbounds nuw %struct.slurm_opt_t, ptr %26, i32 0, i32 9
  %28 = load ptr, ptr %27, align 8
  call void @_load_multi(ptr noundef %25, ptr noundef %28)
  %29 = load ptr, ptr %5, align 8
  %30 = getelementptr inbounds nuw %struct.slurm_opt_t, ptr %29, i32 0, i32 9
  %31 = load ptr, ptr %30, align 8
  %32 = load i32, ptr %4, align 4
  %33 = sext i32 %32 to i64
  %34 = getelementptr inbounds ptr, ptr %31, i64 %33
  %35 = load ptr, ptr %34, align 8
  %36 = load ptr, ptr %5, align 8
  %37 = call i32 @verify_multi_name(ptr noundef %35, ptr noundef %36)
  %38 = icmp ne i32 %37, 0
  br i1 %38, label %39, label %41

39:                                               ; preds = %23
  %40 = load i32, ptr @error_exit, align 4
  call void @exit(i32 noundef %40) #11
  unreachable

41:                                               ; preds = %23
  store i32 1, ptr %3, align 4
  store i32 1, ptr %7, align 4
  br label %43

42:                                               ; preds = %2
  store i32 0, ptr %3, align 4
  store i32 1, ptr %7, align 4
  br label %43

43:                                               ; preds = %42, %41
  call void @llvm.lifetime.end.p0(i64 8, ptr %6) #10
  %44 = load i32, ptr %3, align 4
  ret i32 %44
}