; Function Attrs: nounwind uwtable
define dso_local range(i32 0, 2) i32 @launch_g_handle_multi_prog_verify(i32 noundef %0, ptr noundef %1) local_unnamed_addr #0 {
  %3 = alloca %struct.stat, align 8
  %4 = getelementptr inbounds nuw i8, ptr %1, i64 24
  %5 = load ptr, ptr %4, align 8
  %6 = getelementptr inbounds nuw i8, ptr %5, i64 120
  %7 = load i8, ptr %6, align 8, !range !8, !noundef !9
  %8 = trunc nuw i8 %7 to i1
  br i1 %8, label %9, label %79

9:                                                ; preds = %2
  %10 = getelementptr inbounds nuw i8, ptr %1, i64 64
  %11 = load i32, ptr %10, align 8
  %12 = icmp slt i32 %11, 1
  br i1 %12, label %13, label %16

13:                                               ; preds = %9
  %14 = tail call i32 (ptr, ...) @error(ptr noundef nonnull @.str.5) #17
  %15 = load i32, ptr @error_exit, align 4
  tail call void @exit(i32 noundef %15) #18
  unreachable

16:                                               ; preds = %9
  %17 = getelementptr inbounds nuw i8, ptr %1, i64 72
  %18 = load ptr, ptr %17, align 8
  call void @llvm.lifetime.start.p0(i64 144, ptr nonnull %3) #17
  %19 = load ptr, ptr %18, align 8
  %20 = tail call i32 (ptr, i32, ...) @open(ptr noundef %19, i32 noundef 0) #17
  %21 = icmp eq i32 %20, -1
  br i1 %21, label %22, label %26

22:                                               ; preds = %16
  %23 = load ptr, ptr %18, align 8
  %24 = tail call i32 (ptr, ...) @error(ptr noundef nonnull @.str.28, ptr noundef %23) #17
  %25 = load i32, ptr @error_exit, align 4
  tail call void @exit(i32 noundef %25) #18
  unreachable

26:                                               ; preds = %16
  %27 = call i32 @fstat(i32 noundef %20, ptr noundef nonnull %3) #17
  %28 = icmp eq i32 %27, -1
  br i1 %28, label %29, label %33

29:                                               ; preds = %26
  %30 = load ptr, ptr %18, align 8
  %31 = tail call i32 (ptr, ...) @error(ptr noundef nonnull @.str.29, ptr noundef %30) #17
  %32 = load i32, ptr @error_exit, align 4
  tail call void @exit(i32 noundef %32) #18
  unreachable

33:                                               ; preds = %26
  %34 = getelementptr inbounds nuw i8, ptr %3, i64 48
  %35 = load i64, ptr %34, align 8
  %36 = icmp sgt i64 %35, 60000
  br i1 %36, label %37, label %41

37:                                               ; preds = %33
  %38 = load ptr, ptr %18, align 8
  %39 = tail call i32 (ptr, ...) @error(ptr noundef nonnull @.str.30, ptr noundef %38) #17
  %40 = load i32, ptr @error_exit, align 4
  tail call void @exit(i32 noundef %40) #18
  unreachable

41:                                               ; preds = %33
  %42 = add nsw i64 %35, 1
  %43 = tail call ptr @slurm_xcalloc(i64 noundef 1, i64 noundef %42, i1 noundef zeroext true, i1 noundef zeroext false, ptr noundef nonnull @.str.4, i32 noundef 519, ptr noundef nonnull @__func__._load_multi) #17
  %44 = tail call i64 @read(i32 noundef %20, ptr noundef %43, i64 noundef %35) #17
  %45 = trunc i64 %44 to i32
  %.not27.i = icmp eq i32 %45, 0
  br i1 %.not27.i, label %._crit_edge.i, label %.lr.ph.i

46:                                               ; preds = %.lr.ph.i
  %47 = add nuw nsw i32 %.028.i, %53
  %48 = zext nneg i32 %47 to i64
  %49 = getelementptr inbounds nuw i8, ptr %43, i64 %48
  %50 = sub nsw i64 %35, %48
  %51 = tail call i64 @read(i32 noundef %20, ptr noundef nonnull %49, i64 noundef %50) #17
  %52 = trunc i64 %51 to i32
  %.not.i = icmp eq i32 %52, 0
  br i1 %.not.i, label %._crit_edge.i, label %.lr.ph.i, !llvm.loop !10

.lr.ph.i:                                         ; preds = %41, %46
  %53 = phi i32 [ %52, %46 ], [ %45, %41 ]
  %.028.i = phi i32 [ %47, %46 ], [ 0, %41 ]
  %54 = icmp slt i32 %53, 0
  br i1 %54, label %55, label %46

55:                                               ; preds = %.lr.ph.i
  %56 = load ptr, ptr %18, align 8
  %57 = tail call i32 (ptr, ...) @error(ptr noundef nonnull @.str.31, ptr noundef %56) #17
  %58 = load i32, ptr @error_exit, align 4
  tail call void @exit(i32 noundef %58) #18
  unreachable

._crit_edge.i:                                    ; preds = %46, %41
  %59 = tail call i32 @close(i32 noundef %20) #17
  %60 = load i32, ptr %10, align 4
  %61 = icmp sgt i32 %60, 0
  br i1 %61, label %.lr.ph31.preheader.i, label %_load_multi.exit

.lr.ph31.preheader.i:                             ; preds = %._crit_edge.i
  %62 = add nuw i32 %60, 1
  %63 = zext i32 %62 to i64
  br label %.lr.ph31.i

.lr.ph31.i:                                       ; preds = %.lr.ph31.i, %.lr.ph31.preheader.i
  %indvars.iv.i = phi i64 [ %63, %.lr.ph31.preheader.i ], [ %indvars.iv.next.i, %.lr.ph31.i ]
  %64 = getelementptr ptr, ptr %18, i64 %indvars.iv.i
  %65 = getelementptr i8, ptr %64, i64 -8
  %66 = load ptr, ptr %65, align 8
  store ptr %66, ptr %64, align 8
  %indvars.iv.next.i = add nsw i64 %indvars.iv.i, -1
  %67 = trunc nuw i64 %indvars.iv.i to i32
  %68 = icmp sgt i32 %67, 2
  br i1 %68, label %.lr.ph31.i, label %_load_multi.exit, !llvm.loop !13

_load_multi.exit:                                 ; preds = %.lr.ph31.i, %._crit_edge.i
  %69 = getelementptr inbounds nuw i8, ptr %18, i64 8
  store ptr %43, ptr %69, align 8
  %70 = load i32, ptr %10, align 4
  %71 = add nsw i32 %70, 1
  store i32 %71, ptr %10, align 4
  call void @llvm.lifetime.end.p0(i64 144, ptr nonnull %3) #17
  %72 = load ptr, ptr %17, align 8
  %73 = sext i32 %0 to i64
  %74 = getelementptr inbounds ptr, ptr %72, i64 %73
  %75 = load ptr, ptr %74, align 8
  %76 = tail call i32 @verify_multi_name(ptr noundef %75, ptr noundef %1) #17
  %.not = icmp eq i32 %76, 0
  br i1 %.not, label %79, label %77

77:                                               ; preds = %_load_multi.exit
  %78 = load i32, ptr @error_exit, align 4
  tail call void @exit(i32 noundef %78) #18
  unreachable

79:                                               ; preds = %2, %_load_multi.exit
  %.0 = phi i32 [ 1, %_load_multi.exit ], [ 0, %2 ]
  ret i32 %.0
}